; Function Attrs: mustprogress nofree norecurse nosync nounwind willreturn memory(argmem: write) uwtable
define void @ossl_qtx_set_mutator(ptr noundef writeonly captures(none) initializes((976, 1000)) %0, ptr noundef %1, ptr noundef %2, ptr noundef %3) local_unnamed_addr #3 {
  %5 = getelementptr inbounds nuw i8, ptr %0, i64 976
  store ptr %1, ptr %5, align 8, !tbaa !36
  %6 = getelementptr inbounds nuw i8, ptr %0, i64 984
  store ptr %2, ptr %6, align 8, !tbaa !37
  %7 = getelementptr inbounds nuw i8, ptr %0, i64 992
  store ptr %3, ptr %7, align 8, !tbaa !38
  ret void
}